target datalayout = "e-m:e-p270:32:32-p271:32:32-p272:64:64-i64:64-i128:128-f80:128-n8:16:32:64-S128"
target triple = "x86_64-pc-linux-gnu"

%struct.RLTable = type { i32, i32, ptr, ptr, ptr, [2 x ptr], [2 x ptr], [2 x ptr], [32 x ptr] }

@mv_vector_tables = internal global [2 x [4096 x i32]] zeroinitializer, align 16
@ff_rl_table = external hidden global [6 x %struct.RLTable], align 16
@rl_length = internal global [6 x [65 x [65 x [2 x i8]]]] zeroinitializer, align 16
@ff_msmp4_mv_table0 = external hidden constant [1100 x i16], align 16
@ff_msmp4_mv_table0_lens = external hidden constant [1100 x i8], align 16
@ff_msmp4_mv_table1 = external hidden constant [1100 x i16], align 16
@ff_msmp4_mv_table1_lens = external hidden constant [1100 x i8], align 16

; Function Attrs: inlinehint nounwind uwtable
define internal i32 @get_rl_index(ptr noundef %0, i32 noundef %1, i32 noundef %2, i32 noundef %3) #1 {
  %5 = alloca i32, align 4
  %6 = alloca ptr, align 8
  %7 = alloca i32, align 4
  %8 = alloca i32, align 4
  %9 = alloca i32, align 4
  %10 = alloca i32, align 4
  %11 = alloca i32, align 4
  store ptr %0, ptr %6, align 8, !tbaa !89
  store i32 %1, ptr %7, align 4, !tbaa !9
  store i32 %2, ptr %8, align 4, !tbaa !9
  store i32 %3, ptr %9, align 4, !tbaa !9
  call void @llvm.lifetime.start.p0(i64 4, ptr %10) #8
  %12 = load ptr, ptr %6, align 8, !tbaa !89
  %13 = getelementptr inbounds nuw %struct.RLTable, ptr %12, i32 0, i32 5
  %14 = load i32, ptr %7, align 4, !tbaa !9
  %15 = sext i32 %14 to i64
  %16 = getelementptr inbounds [2 x ptr], ptr %13, i64 0, i64 %15
  %17 = load ptr, ptr %16, align 8, !tbaa !92
  %18 = load i32, ptr %8, align 4, !tbaa !9
  %19 = sext i32 %18 to i64
  %20 = getelementptr inbounds i8, ptr %17, i64 %19
  %21 = load i8, ptr %20, align 1, !tbaa !93
  %22 = zext i8 %21 to i32
  store i32 %22, ptr %10, align 4, !tbaa !9
  %23 = load i32, ptr %10, align 4, !tbaa !9
  %24 = load ptr, ptr %6, align 8, !tbaa !89
  %25 = getelementptr inbounds nuw %struct.RLTable, ptr %24, i32 0, i32 0
  %26 = load i32, ptr %25, align 8, !tbaa !98
  %27 = icmp sge i32 %23, %26
  br i1 %27, label %28, label %32

28:                                               ; preds = %4
  %29 = load ptr, ptr %6, align 8, !tbaa !89
  %30 = getelementptr inbounds nuw %struct.RLTable, ptr %29, i32 0, i32 0
  %31 = load i32, ptr %30, align 8, !tbaa !98
  store i32 %31, ptr %5, align 4
  store i32 1, ptr %11, align 4
  br label %55

32:                                               ; preds = %4
  %33 = load i32, ptr %9, align 4, !tbaa !9
  %34 = load ptr, ptr %6, align 8, !tbaa !89
  %35 = getelementptr inbounds nuw %struct.RLTable, ptr %34, i32 0, i32 6
  %36 = load i32, ptr %7, align 4, !tbaa !9
  %37 = sext i32 %36 to i64
  %38 = getelementptr inbounds [2 x ptr], ptr %35, i64 0, i64 %37
  %39 = load ptr, ptr %38, align 8, !tbaa !92
  %40 = load i32, ptr %8, align 4, !tbaa !9
  %41 = sext i32 %40 to i64
  %42 = getelementptr inbounds i8, ptr %39, i64 %41
  %43 = load i8, ptr %42, align 1, !tbaa !93
  %44 = sext i8 %43 to i32
  %45 = icmp sgt i32 %33, %44
  br i1 %45, label %46, label %50

46:                                               ; preds = %32
  %47 = load ptr, ptr %6, align 8, !tbaa !89
  %48 = getelementptr inbounds nuw %struct.RLTable, ptr %47, i32 0, i32 0
  %49 = load i32, ptr %48, align 8, !tbaa !98
  store i32 %49, ptr %5, align 4
  store i32 1, ptr %11, align 4
  br label %55

50:                                               ; preds = %32
  %51 = load i32, ptr %10, align 4, !tbaa !9
  %52 = load i32, ptr %9, align 4, !tbaa !9
  %53 = add nsw i32 %51, %52
  %54 = sub nsw i32 %53, 1
  store i32 %54, ptr %5, align 4
  store i32 1, ptr %11, align 4
  br label %55

55:                                               ; preds = %50, %46, %28
  call void @llvm.lifetime.end.p0(i64 4, ptr %10) #8
  %56 = load i32, ptr %5, align 4
  ret i32 %56
}

; Function Attrs: nounwind uwtable
define internal i32 @get_size_of_code(ptr noundef %0, i32 noundef %1, i32 noundef %2, i32 noundef %3, i32 noundef %4) #0 {
  %6 = alloca ptr, align 8
  %7 = alloca i32, align 4
  %8 = alloca i32, align 4
  %9 = alloca i32, align 4
  %10 = alloca i32, align 4
  %11 = alloca i32, align 4
  %12 = alloca i32, align 4
  %13 = alloca i32, align 4
  %14 = alloca i32, align 4
  %15 = alloca i32, align 4
  store ptr %0, ptr %6, align 8, !tbaa !89
  store i32 %1, ptr %7, align 4, !tbaa !9
  store i32 %2, ptr %8, align 4, !tbaa !9
  store i32 %3, ptr %9, align 4, !tbaa !9
  store i32 %4, ptr %10, align 4, !tbaa !9
  call void @llvm.lifetime.start.p0(i64 4, ptr %11) #8
  store i32 0, ptr %11, align 4, !tbaa !9
  call void @llvm.lifetime.start.p0(i64 4, ptr %12) #8
  call void @llvm.lifetime.start.p0(i64 4, ptr %13) #8
  %16 = load i32, ptr %10, align 4, !tbaa !9
  %17 = icmp ne i32 %16, 0
  %18 = select i1 %17, i32 0, i32 1
  store i32 %18, ptr %13, align 4, !tbaa !9
  %19 = load ptr, ptr %6, align 8, !tbaa !89
  %20 = load i32, ptr %7, align 4, !tbaa !9
  %21 = load i32, ptr %8, align 4, !tbaa !9
  %22 = load i32, ptr %9, align 4, !tbaa !9
  %23 = call i32 @get_rl_index(ptr noundef %19, i32 noundef %20, i32 noundef %21, i32 noundef %22)
  store i32 %23, ptr %12, align 4, !tbaa !9
  %24 = load ptr, ptr %6, align 8, !tbaa !89
  %25 = getelementptr inbounds nuw %struct.RLTable, ptr %24, i32 0, i32 2
  %26 = load ptr, ptr %25, align 8, !tbaa !96
  %27 = load i32, ptr %12, align 4, !tbaa !9
  %28 = sext i32 %27 to i64
  %29 = getelementptr inbounds [2 x i16], ptr %26, i64 %28
  %30 = getelementptr inbounds [2 x i16], ptr %29, i64 0, i64 1
  %31 = load i16, ptr %30, align 2, !tbaa !87
  %32 = zext i16 %31 to i32
  %33 = load i32, ptr %11, align 4, !tbaa !9
  %34 = add nsw i32 %33, %32
  store i32 %34, ptr %11, align 4, !tbaa !9
  %35 = load i32, ptr %12, align 4, !tbaa !9
  %36 = load ptr, ptr %6, align 8, !tbaa !89
  %37 = getelementptr inbounds nuw %struct.RLTable, ptr %36, i32 0, i32 0
  %38 = load i32, ptr %37, align 8, !tbaa !98
  %39 = icmp eq i32 %35, %38
  br i1 %39, label %40, label %137

40:                                               ; preds = %5
  call void @llvm.lifetime.start.p0(i64 4, ptr %14) #8
  call void @llvm.lifetime.start.p0(i64 4, ptr %15) #8
  %41 = load i32, ptr %9, align 4, !tbaa !9
  %42 = load ptr, ptr %6, align 8, !tbaa !89
  %43 = getelementptr inbounds nuw %struct.RLTable, ptr %42, i32 0, i32 6
  %44 = load i32, ptr %7, align 4, !tbaa !9
  %45 = sext i32 %44 to i64
  %46 = getelementptr inbounds [2 x ptr], ptr %43, i64 0, i64 %45
  %47 = load ptr, ptr %46, align 8, !tbaa !92
  %48 = load i32, ptr %8, align 4, !tbaa !9
  %49 = sext i32 %48 to i64
  %50 = getelementptr inbounds i8, ptr %47, i64 %49
  %51 = load i8, ptr %50, align 1, !tbaa !93
  %52 = sext i8 %51 to i32
  %53 = sub nsw i32 %41, %52
  store i32 %53, ptr %14, align 4, !tbaa !9
  %54 = load i32, ptr %14, align 4, !tbaa !9
  %55 = icmp slt i32 %54, 1
  br i1 %55, label %56, label %57

56:                                               ; preds = %40
  br label %69

57:                                               ; preds = %40
  %58 = load ptr, ptr %6, align 8, !tbaa !89
  %59 = load i32, ptr %7, align 4, !tbaa !9
  %60 = load i32, ptr %8, align 4, !tbaa !9
  %61 = load i32, ptr %14, align 4, !tbaa !9
  %62 = call i32 @get_rl_index(ptr noundef %58, i32 noundef %59, i32 noundef %60, i32 noundef %61)
  store i32 %62, ptr %12, align 4, !tbaa !9
  %63 = load i32, ptr %12, align 4, !tbaa !9
  %64 = load ptr, ptr %6, align 8, !tbaa !89
  %65 = getelementptr inbounds nuw %struct.RLTable, ptr %64, i32 0, i32 0
  %66 = load i32, ptr %65, align 8, !tbaa !98
  %67 = icmp eq i32 %63, %66
  br i1 %67, label %68, label %123

68:                                               ; preds = %57
  br label %69

69:                                               ; preds = %68, %56
  %70 = load i32, ptr %11, align 4, !tbaa !9
  %71 = add nsw i32 %70, 1
  store i32 %71, ptr %11, align 4, !tbaa !9
  %72 = load i32, ptr %9, align 4, !tbaa !9
  %73 = icmp sgt i32 %72, 64
  br i1 %73, label %74, label %75

74:                                               ; preds = %69
  br label %106

75:                                               ; preds = %69
  %76 = load i32, ptr %8, align 4, !tbaa !9
  %77 = load ptr, ptr %6, align 8, !tbaa !89
  %78 = getelementptr inbounds nuw %struct.RLTable, ptr %77, i32 0, i32 7
  %79 = load i32, ptr %7, align 4, !tbaa !9
  %80 = sext i32 %79 to i64
  %81 = getelementptr inbounds [2 x ptr], ptr %78, i64 0, i64 %80
  %82 = load ptr, ptr %81, align 8, !tbaa !92
  %83 = load i32, ptr %9, align 4, !tbaa !9
  %84 = sext i32 %83 to i64
  %85 = getelementptr inbounds i8, ptr %82, i64 %84
  %86 = load i8, ptr %85, align 1, !tbaa !93
  %87 = sext i8 %86 to i32
  %88 = sub nsw i32 %76, %87
  %89 = load i32, ptr %13, align 4, !tbaa !9
  %90 = sub nsw i32 %88, %89
  store i32 %90, ptr %15, align 4, !tbaa !9
  %91 = load i32, ptr %15, align 4, !tbaa !9
  %92 = icmp slt i32 %91, 0
  br i1 %92, label %93, label %94

93:                                               ; preds = %75
  br label %106

94:                                               ; preds = %75
  %95 = load ptr, ptr %6, align 8, !tbaa !89
  %96 = load i32, ptr %7, align 4, !tbaa !9
  %97 = load i32, ptr %15, align 4, !tbaa !9
  %98 = load i32, ptr %9, align 4, !tbaa !9
  %99 = call i32 @get_rl_index(ptr noundef %95, i32 noundef %96, i32 noundef %97, i32 noundef %98)
  store i32 %99, ptr %12, align 4, !tbaa !9
  %100 = load i32, ptr %12, align 4, !tbaa !9
  %101 = load ptr, ptr %6, align 8, !tbaa !89
  %102 = getelementptr inbounds nuw %struct.RLTable, ptr %101, i32 0, i32 0
  %103 = load i32, ptr %102, align 8, !tbaa !98
  %104 = icmp eq i32 %100, %103
  br i1 %104, label %105, label %109

105:                                              ; preds = %94
  br label %106

106:                                              ; preds = %105, %93, %74
  %107 = load i32, ptr %11, align 4, !tbaa !9
  %108 = add nsw i32 %107, 16
  store i32 %108, ptr %11, align 4, !tbaa !9
  br label %122

109:                                              ; preds = %94
  %110 = load ptr, ptr %6, align 8, !tbaa !89
  %111 = getelementptr inbounds nuw %struct.RLTable, ptr %110, i32 0, i32 2
  %112 = load ptr, ptr %111, align 8, !tbaa !96
  %113 = load i32, ptr %12, align 4, !tbaa !9
  %114 = sext i32 %113 to i64
  %115 = getelementptr inbounds [2 x i16], ptr %112, i64 %114
  %116 = getelementptr inbounds [2 x i16], ptr %115, i64 0, i64 1
  %117 = load i16, ptr %116, align 2, !tbaa !87
  %118 = zext i16 %117 to i32
  %119 = add nsw i32 2, %118
  %120 = load i32, ptr %11, align 4, !tbaa !9
  %121 = add nsw i32 %120, %119
  store i32 %121, ptr %11, align 4, !tbaa !9
  br label %122

122:                                              ; preds = %109, %106
  br label %136

123:                                              ; preds = %57
  %124 = load ptr, ptr %6, align 8, !tbaa !89
  %125 = getelementptr inbounds nuw %struct.RLTable, ptr %124, i32 0, i32 2
  %126 = load ptr, ptr %125, align 8, !tbaa !96
  %127 = load i32, ptr %12, align 4, !tbaa !9
  %128 = sext i32 %127 to i64
  %129 = getelementptr inbounds [2 x i16], ptr %126, i64 %128
  %130 = getelementptr inbounds [2 x i16], ptr %129, i64 0, i64 1
  %131 = load i16, ptr %130, align 2, !tbaa !87
  %132 = zext i16 %131 to i32
  %133 = add nsw i32 2, %132
  %134 = load i32, ptr %11, align 4, !tbaa !9
  %135 = add nsw i32 %134, %133
  store i32 %135, ptr %11, align 4, !tbaa !9
  br label %136

136:                                              ; preds = %123, %122
  call void @llvm.lifetime.end.p0(i64 4, ptr %15) #8
  call void @llvm.lifetime.end.p0(i64 4, ptr %14) #8
  br label %140

137:                                              ; preds = %5
  %138 = load i32, ptr %11, align 4, !tbaa !9
  %139 = add nsw i32 %138, 1
  store i32 %139, ptr %11, align 4, !tbaa !9
  br label %140

140:                                              ; preds = %137, %136
  %141 = load i32, ptr %11, align 4, !tbaa !9
  call void @llvm.lifetime.end.p0(i64 4, ptr %13) #8
  call void @llvm.lifetime.end.p0(i64 4, ptr %12) #8
  call void @llvm.lifetime.end.p0(i64 4, ptr %11) #8
  ret i32 %141
}

; Function Attrs: cold nounwind optsize uwtable
define internal void @msmpeg4_encode_init_static() #5 {
  %1 = alloca i32, align 4
  %2 = alloca i32, align 4
  %3 = alloca i32, align 4
  %4 = alloca i32, align 4
  %5 = alloca i32, align 4
  call void @init_mv_table(ptr noundef @ff_msmp4_mv_table0, ptr noundef @ff_msmp4_mv_table0_lens, ptr noundef @mv_vector_tables, i32 noundef 0, i32 noundef 20) #11
  call void @init_mv_table(ptr noundef @ff_msmp4_mv_table1, ptr noundef @ff_msmp4_mv_table1_lens, ptr noundef getelementptr inbounds ([2 x [4096 x i32]], ptr @mv_vector_tables, i64 0, i64 1), i32 noundef 11, i32 noundef 16) #11
  call void @llvm.lifetime.start.p0(i64 4, ptr %1) #8
  store i32 0, ptr %1, align 4, !tbaa !9
  br label %6

6:                                                ; preds = %58, %0
  %7 = load i32, ptr %1, align 4, !tbaa !9
  %8 = icmp slt i32 %7, 6
  br i1 %8, label %10, label %9

9:                                                ; preds = %6
  store i32 2, ptr %2, align 4
  call void @llvm.lifetime.end.p0(i64 4, ptr %1) #8
  br label %61

10:                                               ; preds = %6
  call void @llvm.lifetime.start.p0(i64 4, ptr %3) #8
  store i32 1, ptr %3, align 4, !tbaa !9
  br label %11

11:                                               ; preds = %54, %10
  %12 = load i32, ptr %3, align 4, !tbaa !9
  %13 = icmp sle i32 %12, 64
  br i1 %13, label %15, label %14

14:                                               ; preds = %11
  store i32 5, ptr %2, align 4
  call void @llvm.lifetime.end.p0(i64 4, ptr %3) #8
  br label %57

15:                                               ; preds = %11
  call void @llvm.lifetime.start.p0(i64 4, ptr %4) #8
  store i32 0, ptr %4, align 4, !tbaa !9
  br label %16

16:                                               ; preds = %50, %15
  %17 = load i32, ptr %4, align 4, !tbaa !9
  %18 = icmp sle i32 %17, 64
  br i1 %18, label %20, label %19

19:                                               ; preds = %16
  store i32 8, ptr %2, align 4
  call void @llvm.lifetime.end.p0(i64 4, ptr %4) #8
  br label %53

20:                                               ; preds = %16
  call void @llvm.lifetime.start.p0(i64 4, ptr %5) #8
  store i32 0, ptr %5, align 4, !tbaa !9
  br label %21

21:                                               ; preds = %46, %20
  %22 = load i32, ptr %5, align 4, !tbaa !9
  %23 = icmp slt i32 %22, 2
  br i1 %23, label %25, label %24

24:                                               ; preds = %21
  store i32 11, ptr %2, align 4
  call void @llvm.lifetime.end.p0(i64 4, ptr %5) #8
  br label %49

25:                                               ; preds = %21
  %26 = load i32, ptr %1, align 4, !tbaa !9
  %27 = sext i32 %26 to i64
  %28 = getelementptr inbounds [6 x %struct.RLTable], ptr @ff_rl_table, i64 0, i64 %27
  %29 = load i32, ptr %5, align 4, !tbaa !9
  %30 = load i32, ptr %4, align 4, !tbaa !9
  %31 = load i32, ptr %3, align 4, !tbaa !9
  %32 = call i32 @get_size_of_code(ptr noundef %28, i32 noundef %29, i32 noundef %30, i32 noundef %31, i32 noundef 0)
  %33 = trunc i32 %32 to i8
  %34 = load i32, ptr %1, align 4, !tbaa !9
  %35 = sext i32 %34 to i64
  %36 = getelementptr inbounds [6 x [65 x [65 x [2 x i8]]]], ptr @rl_length, i64 0, i64 %35
  %37 = load i32, ptr %3, align 4, !tbaa !9
  %38 = sext i32 %37 to i64
  %39 = getelementptr inbounds [65 x [65 x [2 x i8]]], ptr %36, i64 0, i64 %38
  %40 = load i32, ptr %4, align 4, !tbaa !9
  %41 = sext i32 %40 to i64
  %42 = getelementptr inbounds [65 x [2 x i8]], ptr %39, i64 0, i64 %41
  %43 = load i32, ptr %5, align 4, !tbaa !9
  %44 = sext i32 %43 to i64
  %45 = getelementptr inbounds [2 x i8], ptr %42, i64 0, i64 %44
  store i8 %33, ptr %45, align 1, !tbaa !93
  br label %46

46:                                               ; preds = %25
  %47 = load i32, ptr %5, align 4, !tbaa !9
  %48 = add nsw i32 %47, 1
  store i32 %48, ptr %5, align 4, !tbaa !9
  br label %21, !llvm.loop !129

49:                                               ; preds = %24
  br label %50

50:                                               ; preds = %49
  %51 = load i32, ptr %4, align 4, !tbaa !9
  %52 = add nsw i32 %51, 1
  store i32 %52, ptr %4, align 4, !tbaa !9
  br label %16, !llvm.loop !130

53:                                               ; preds = %19
  br label %54

54:                                               ; preds = %53
  %55 = load i32, ptr %3, align 4, !tbaa !9
  %56 = add nsw i32 %55, 1
  store i32 %56, ptr %3, align 4, !tbaa !9
  br label %11, !llvm.loop !131

57:                                               ; preds = %14
  br label %58

58:                                               ; preds = %57
  %59 = load i32, ptr %1, align 4, !tbaa !9
  %60 = add nsw i32 %59, 1
  store i32 %60, ptr %1, align 4, !tbaa !9
  br label %6, !llvm.loop !132

61:                                               ; preds = %9
  ret void
}