; Function Attrs: cold nofree norecurse nosync nounwind optsize memory(readwrite, argmem: read, inaccessiblemem: none) uwtable
define internal void @msmpeg4_encode_init_static() #5 {
  tail call fastcc void @init_mv_table(ptr noundef nonnull @ff_msmp4_mv_table0, ptr noundef nonnull @ff_msmp4_mv_table0_lens, ptr noundef nonnull @mv_vector_tables, i32 noundef 0, i32 noundef 20) #11
  tail call fastcc void @init_mv_table(ptr noundef nonnull @ff_msmp4_mv_table1, ptr noundef nonnull @ff_msmp4_mv_table1_lens, ptr noundef nonnull getelementptr inbounds nuw (i8, ptr @mv_vector_tables, i64 16384), i32 noundef 11, i32 noundef 16) #11
  br label %.preheader20

.preheader20:                                     ; preds = %0, %12
  %indvars.iv34 = phi i64 [ 0, %0 ], [ %indvars.iv.next35, %12 ]
  %1 = getelementptr inbounds nuw [6 x %struct.RLTable], ptr @ff_rl_table, i64 0, i64 %indvars.iv34
  %2 = getelementptr inbounds nuw i8, ptr %1, i64 32
  %3 = load i32, ptr %1, align 16, !tbaa !93
  %4 = getelementptr inbounds nuw i8, ptr %1, i64 8
  %5 = sext i32 %3 to i64
  %6 = getelementptr inbounds nuw i8, ptr %1, i64 48
  %7 = zext nneg i32 %3 to i64
  %8 = getelementptr inbounds nuw i8, ptr %1, i64 64
  br label %.preheader19

9:                                                ; preds = %12
  ret void

.preheader19:                                     ; preds = %.preheader20, %14
  %indvars.iv29 = phi i64 [ 1, %.preheader20 ], [ %indvars.iv.next30, %14 ]
  %10 = add nsw i64 %indvars.iv29, -1
  %11 = trunc nuw nsw i64 %indvars.iv29 to i32
  br label %.preheader

12:                                               ; preds = %14
  %indvars.iv.next35 = add nuw nsw i64 %indvars.iv34, 1
  %exitcond37.not = icmp eq i64 %indvars.iv.next35, 6
  br i1 %exitcond37.not, label %9, label %.preheader20, !llvm.loop !129

.preheader:                                       ; preds = %.preheader19, %15
  %indvars.iv26 = phi i64 [ 0, %.preheader19 ], [ %indvars.iv.next27, %15 ]
  %13 = trunc nuw nsw i64 %indvars.iv26 to i32
  br label %16

14:                                               ; preds = %15
  %indvars.iv.next30 = add nuw nsw i64 %indvars.iv29, 1
  %exitcond33.not = icmp eq i64 %indvars.iv.next30, 65
  br i1 %exitcond33.not, label %12, label %.preheader19, !llvm.loop !130

15:                                               ; preds = %get_size_of_code.exit
  %indvars.iv.next27 = add nuw nsw i64 %indvars.iv26, 1
  %exitcond.not = icmp eq i64 %indvars.iv.next27, 65
  br i1 %exitcond.not, label %14, label %.preheader, !llvm.loop !131

16:                                               ; preds = %.preheader, %get_size_of_code.exit
  %17 = phi i1 [ true, %.preheader ], [ false, %get_size_of_code.exit ]
  %indvars.iv = phi i64 [ 0, %.preheader ], [ 1, %get_size_of_code.exit ]
  %18 = getelementptr inbounds nuw [2 x ptr], ptr %2, i64 0, i64 %indvars.iv
  %19 = load ptr, ptr %18, align 8, !tbaa !92
  %20 = getelementptr inbounds nuw i8, ptr %19, i64 %indvars.iv26
  %21 = load i8, ptr %20, align 1, !tbaa !14
  %22 = zext i8 %21 to i32
  %.not.i.i = icmp sgt i32 %3, %22
  br i1 %.not.i.i, label %23, label %.thread60.i

23:                                               ; preds = %16
  %24 = getelementptr inbounds nuw [2 x ptr], ptr %6, i64 0, i64 %indvars.iv
  %25 = load ptr, ptr %24, align 8, !tbaa !92
  %26 = getelementptr inbounds nuw i8, ptr %25, i64 %indvars.iv26
  %27 = load i8, ptr %26, align 1, !tbaa !14
  %28 = sext i8 %27 to i64
  %29 = icmp sgt i64 %indvars.iv29, %28
  br i1 %29, label %.thread55.i, label %get_rl_index.exit.i

get_rl_index.exit.i:                              ; preds = %23
  %30 = zext i8 %21 to i64
  %31 = add nsw i64 %10, %30
  %32 = load ptr, ptr %4, align 8, !tbaa !95
  %33 = getelementptr inbounds [2 x i16], ptr %32, i64 %31, i64 1
  %34 = load i16, ptr %33, align 2, !tbaa !83
  %35 = trunc i16 %34 to i8
  %.wide = icmp eq i64 %31, %5
  br i1 %.wide, label %get_rl_index.exit50.thread.i, label %89

.thread55.i:                                      ; preds = %23
  %36 = sext i8 %27 to i32
  %37 = load ptr, ptr %4, align 8, !tbaa !95
  %38 = getelementptr inbounds nuw [2 x i16], ptr %37, i64 %7, i64 1
  %39 = load i16, ptr %38, align 2, !tbaa !83
  %40 = trunc i16 %39 to i8
  %41 = sub nsw i32 %11, %36
  %42 = icmp sgt i32 %41, %36
  br i1 %42, label %get_rl_index.exit50.thread.i, label %get_rl_index.exit50.i

.thread60.i:                                      ; preds = %16
  %43 = load ptr, ptr %4, align 8, !tbaa !95
  %44 = getelementptr inbounds [2 x i16], ptr %43, i64 %5, i64 1
  %45 = load i16, ptr %44, align 2, !tbaa !83
  %46 = trunc i16 %45 to i8
  %47 = getelementptr inbounds nuw [2 x ptr], ptr %6, i64 0, i64 %indvars.iv
  %48 = load ptr, ptr %47, align 8, !tbaa !92
  br label %get_rl_index.exit50.thread.i

get_rl_index.exit50.i:                            ; preds = %.thread55.i
  %49 = add nsw i32 %22, -1
  %50 = add nsw i32 %49, %41
  %51 = icmp eq i32 %50, %3
  br i1 %51, label %get_rl_index.exit50.thread.i, label %82

get_rl_index.exit50.thread.i:                     ; preds = %get_rl_index.exit.i, %get_rl_index.exit50.i, %.thread55.i, %.thread60.i
  %52 = phi ptr [ %25, %get_rl_index.exit50.i ], [ %25, %.thread55.i ], [ %48, %.thread60.i ], [ %25, %get_rl_index.exit.i ]
  %53 = phi ptr [ %37, %get_rl_index.exit50.i ], [ %37, %.thread55.i ], [ %43, %.thread60.i ], [ %32, %get_rl_index.exit.i ]
  %54 = phi i8 [ %40, %get_rl_index.exit50.i ], [ %40, %.thread55.i ], [ %46, %.thread60.i ], [ %35, %get_rl_index.exit.i ]
  %55 = getelementptr inbounds nuw [2 x ptr], ptr %8, i64 0, i64 %indvars.iv
  %56 = load ptr, ptr %55, align 8, !tbaa !92
  %57 = getelementptr inbounds nuw i8, ptr %56, i64 %indvars.iv29
  %58 = load i8, ptr %57, align 1, !tbaa !14
  %59 = xor i8 %58, -1
  %60 = sext i8 %59 to i32
  %61 = add nsw i32 %13, %60
  %62 = icmp slt i32 %61, 0
  br i1 %62, label %get_rl_index.exit53.thread.i, label %63

63:                                               ; preds = %get_rl_index.exit50.thread.i
  %64 = zext nneg i32 %61 to i64
  %65 = getelementptr inbounds nuw i8, ptr %19, i64 %64
  %66 = load i8, ptr %65, align 1, !tbaa !14
  %67 = zext i8 %66 to i32
  %.not.i51.i = icmp sgt i32 %3, %67
  br i1 %.not.i51.i, label %68, label %get_rl_index.exit53.thread.i

68:                                               ; preds = %63
  %69 = getelementptr inbounds nuw i8, ptr %52, i64 %64
  %70 = load i8, ptr %69, align 1, !tbaa !14
  %71 = sext i8 %70 to i64
  %72 = icmp sgt i64 %indvars.iv29, %71
  br i1 %72, label %get_rl_index.exit53.thread.i, label %get_rl_index.exit53.i

get_rl_index.exit53.i:                            ; preds = %68
  %73 = zext i8 %66 to i64
  %74 = add nsw i64 %10, %73
  %.wide31 = icmp eq i64 %74, %5
  br i1 %.wide31, label %get_rl_index.exit53.thread.i, label %76

get_rl_index.exit53.thread.i:                     ; preds = %get_rl_index.exit53.i, %68, %63, %get_rl_index.exit50.thread.i
  %75 = add i8 %54, 17
  br label %get_size_of_code.exit

76:                                               ; preds = %get_rl_index.exit53.i
  %77 = getelementptr inbounds [2 x i16], ptr %53, i64 %74, i64 1
  %78 = load i16, ptr %77, align 2, !tbaa !83
  %79 = trunc i16 %78 to i8
  %80 = add i8 %54, 3
  %81 = add i8 %80, %79
  br label %get_size_of_code.exit

82:                                               ; preds = %get_rl_index.exit50.i
  %83 = zext nneg i32 %50 to i64
  %84 = getelementptr inbounds nuw [2 x i16], ptr %37, i64 %83, i64 1
  %85 = load i16, ptr %84, align 2, !tbaa !83
  %86 = trunc i16 %85 to i8
  %87 = add i8 %40, 2
  %88 = add i8 %87, %86
  br label %get_size_of_code.exit

89:                                               ; preds = %get_rl_index.exit.i
  %90 = add i8 %35, 1
  br label %get_size_of_code.exit

get_size_of_code.exit:                            ; preds = %get_rl_index.exit53.thread.i, %76, %82, %89
  %.1.i = phi i8 [ %90, %89 ], [ %75, %get_rl_index.exit53.thread.i ], [ %81, %76 ], [ %88, %82 ]
  %91 = getelementptr inbounds nuw [6 x [65 x [65 x [2 x i8]]]], ptr @rl_length, i64 0, i64 %indvars.iv34, i64 %indvars.iv29, i64 %indvars.iv26, i64 %indvars.iv
  store i8 %.1.i, ptr %91, align 1, !tbaa !14
  br i1 %17, label %16, label %15, !llvm.loop !132
}